Certificate:
    Data:
        Version: 3 (0x2)
        Serial Number: 9 (0x9)
        Signature Algorithm: sha256WithRSAEncryption
        Issuer: O=Fortanix, CN=Fortanix OverlayFs Test CA
        Validity
            Not Before: Jun  5 21:51:13 2023 GMT
            Not After : May 12 21:51:13 2123 GMT
        Subject: O=Fortanix
        Subject Public Key Info:
            Public Key Algorithm: rsaEncryption
                RSA Public-Key: (2048 bit)
                Modulus:
                    00:cc:39:84:07:2c:56:75:9e:33:30:cc:19:73:11:
                    d7:bf:66:f0:8b:a1:88:bd:9a:96:e5:bb:78:6f:b5:
                    3d:a7:87:cf:c0:34:e1:05:3a:1a:69:3c:87:ec:c4:
                    64:6d:db:48:2c:6b:05:f4:23:8e:03:0d:8e:87:e3:
                    d6:d0:ab:6b:42:5e:18:ed:5d:2c:6e:94:47:13:dd:
                    4a:15:be:b9:ef:95:00:69:01:a4:ee:ba:e3:24:bb:
                    ff:9b:b1:af:e9:65:ee:5e:b7:d9:c9:e3:e1:c6:a0:
                    0f:b2:9c:03:67:58:a2:1f:b6:16:4b:60:7d:c8:4f:
                    31:ad:9d:54:cf:bd:b2:b0:86:79:38:e4:15:c9:40:
                    71:dc:d7:5c:03:8e:1a:f7:11:a4:3a:f9:39:6e:71:
                    b5:0f:38:a4:9b:d4:91:f3:18:73:53:09:c2:88:43:
                    af:af:58:5d:29:03:40:05:81:ea:e3:2f:08:4c:c3:
                    6e:8a:7a:91:76:ec:6c:66:a2:02:7f:28:eb:ae:65:
                    62:f6:2c:e6:7d:db:b3:c8:a3:26:7a:a5:db:ee:21:
                    d1:1f:b4:5f:96:49:04:35:c2:3a:32:5f:d6:74:5a:
                    e0:b1:03:e7:7e:f5:f7:68:fc:b6:0f:e3:d8:9b:4d:
                    f3:64:af:3f:f9:ad:2d:e4:b4:08:b5:83:a1:0f:ab:
                    e4:ff
                Exponent: 65537 (0x10001)
        X509v3 extensions:
            X509v3 Key Usage: critical
                Digital Signature, Key Encipherment
            X509v3 Extended Key Usage: 
                TLS Web Server Authentication, TLS Web Client Authentication
            X509v3 Subject Alternative Name: critical
                DNS:localhost, DNS:00000000-0000-0000-0000-000000000000.overlayfs.fortanix.cloud, DNS:94377b5f-dd91-4a1a-a884-0714f9cc8d06
    Signature Algorithm: sha256WithRSAEncryption
         05:e3:80:e2:2d:e3:7a:c2:7d:02:e3:39:da:5f:d9:2c:ab:1e:
         19:86:20:86:a2:c9:79:d8:63:dd:51:cf:55:fd:14:c0:63:e2:
         cb:12:d4:70:07:8d:b5:37:2d:af:68:30:0b:03:8a:a5:3c:57:
         fe:7b:c4:a3:df:d1:f6:0e:f3:05:0a:c9:e2:08:68:8b:3c:4a:
         42:bf:7a:cb:03:4b:86:f8:25:21:4e:fd:77:12:2f:ac:d5:85:
         3c:10:f5:99:f3:35:53:a2:d1:f2:f9:67:f3:ff:8a:5a:0f:ff:
         84:68:df:e9:59:87:e3:2f:c9:19:4f:b3:c5:dd:90:7e:c3:40:
         d0:01:c6:49:d8:78:a7:c8:ad:8e:96:d0:c5:a3:25:ac:d6:8f:
         f3:c9:e4:9d:69:ff:44:9f:73:d2:91:dd:de:0d:41:43:c8:03:
         ff:83:ee:df:23:68:ed:fd:80:8a:3d:e1:27:fe:c8:fe:07:24:
         db:32:5e:5a:a0:00:f2:0d:0b:ba:4b:ac:22:fe:98:06:62:28:
         ea:75:38:78:5b:ba:04:d0:57:15:7b:43:c9:b8:63:1f:c5:67:
         31:47:be:c5:5d:67:a1:65:cc:a9:42:da:64:77:93:dc:ce:7b:
         8f:3d:0f:2b:72:b5:11:33:77:5e:7e:72:e5:1d:fc:fe:6c:9e:
         f5:bb:89:76
-----BEGIN CERTIFICATE-----
MIIDeTCCAmGgAwIBAgIBCTANBgkqhkiG9w0BAQsFADA4MREwDwYDVQQKDAhGb3J0
YW5peDEjMCEGA1UEAwwaRm9ydGFuaXggT3ZlcmxheUZzIFRlc3QgQ0EwIBcNMjMw
NjA1MjE1MTEzWhgPMjEyMzA1MTIyMTUxMTNaMBMxETAPBgNVBAoMCEZvcnRhbml4
MIIBIjANBgkqhkiG9w0BAQEFAAOCAQ8AMIIBCgKCAQEAzDmEByxWdZ4zMMwZcxHX
v2bwi6GIvZqW5bt4b7U9p4fPwDThBToaaTyH7MRkbdtILGsF9COOAw2Oh+PW0Ktr
Ql4Y7V0sbpRHE91KFb6575UAaQGk7rrjJLv/m7Gv6WXuXrfZyePhxqAPspwDZ1ii
H7YWS2B9yE8xrZ1Uz72ysIZ5OOQVyUBx3NdcA44a9xGkOvk5bnG1Dzikm9SR8xhz
UwnCiEOvr1hdKQNABYHq4y8ITMNuinqRduxsZqICfyjrrmVi9izmfduzyKMmeqXb
7iHRH7RflkkENcI6Ml/WdFrgsQPnfvX3aPy2D+PYm03zZK8/+a0t5LQItYOhD6vk
/wIDAQABo4GwMIGtMA4GA1UdDwEB/wQEAwIFoDAdBgNVHSUEFjAUBggrBgEFBQcD
AQYIKwYBBQUHAwIwfAYDVR0RAQH/BHIwcIIJbG9jYWxob3N0gj0wMDAwMDAwMC0w
MDAwLTAwMDAtMDAwMC0wMDAwMDAwMDAwMDAub3ZlcmxheWZzLmZvcnRhbml4LmNs
b3VkgiQ5NDM3N2I1Zi1kZDkxLTRhMWEtYTg4NC0wNzE0ZjljYzhkMDYwDQYJKoZI
hvcNAQELBQADggEBAAXjgOIt43rCfQLjOdpf2SyrHhmGIIaiyXnYY91Rz1X9FMBj
4ssS1HAHjbU3La9oMAsDiqU8V/57xKPf0fYO8wUKyeIIaIs8SkK/essDS4b4JSFO
/XcSL6zVhTwQ9ZnzNVOi0fL5Z/P/iloP/4Ro3+lZh+MvyRlPs8XdkH7DQNABxknY
eKfIrY6W0MWjJazWj/PJ5J1p/0Sfc9KR3d4NQUPIA/+D7t8jaO39gIo94Sf+yP4H
JNsyXlqgAPINC7pLrCL+mAZiKOp1OHhbugTQVxV7Q8m4Yx/FZzFHvsVdZ6FlzKlC
2mR3k9zOe489DytytREzd15+cuUd/P5snvW7iXY=
-----END CERTIFICATE-----
